; Function Attrs: mustprogress nofree norecurse nosync nounwind null_pointer_is_valid sspstrong willreturn memory(argmem: read) uwtable
define internal i32 @h225ras_call_hash(ptr noundef readonly captures(none) %0) #4 {
  %2 = load i32, ptr %0, align 8
  %3 = getelementptr inbounds nuw i8, ptr %0, i64 8
  %4 = load ptr, ptr %3, align 8
  %5 = ptrtoint ptr %4 to i64
  %6 = trunc i64 %5 to i32
  %7 = add i32 %2, %6
  ret i32 %7
}